target datalayout = "e-m:e-p270:32:32-p271:32:32-p272:64:64-i64:64-i128:128-f80:128-n8:16:32:64-S128"
target triple = "x86_64-unknown-linux-gnu"

%class.btCollisionObject = type <{ ptr, %class.btTransform, %class.btTransform, %class.btVector3, %class.btVector3, %class.btVector3, i32, float, ptr, ptr, ptr, ptr, i32, i32, i32, i32, i32, float, float, float, float, float, float, float, i32, [4 x i8], ptr, i32, i32, i32, float, float, float, i32, [4 x i8], %class.btAlignedObjectArray, i32, %class.btVector3, [4 x i8] }>
%class.btTransform = type { %class.btMatrix3x3, %class.btVector3 }
%class.btMatrix3x3 = type { [3 x %class.btVector3] }
%class.btAlignedObjectArray = type <{ %class.btAlignedAllocator, [3 x i8], i32, i32, [4 x i8], ptr, i8, [7 x i8] }>
%class.btAlignedAllocator = type { i8 }
%class.btVector3 = type { [4 x float] }

; Function Attrs: mustprogress nounwind uwtable
define dso_local void @_ZNK17btCollisionObject18setActivationStateEi(ptr noundef nonnull align 8 dereferenceable(372) %this, i32 noundef %newState) #1 align 2 {
entry:
  %this.addr = alloca ptr, align 8
  %newState.addr = alloca i32, align 4
  store ptr %this, ptr %this.addr, align 8
  store i32 %newState, ptr %newState.addr, align 4
  %this1 = load ptr, ptr %this.addr, align 8
  %m_activationState1 = getelementptr inbounds %class.btCollisionObject, ptr %this1, i32 0, i32 16
  %0 = load i32, ptr %m_activationState1, align 8
  %cmp = icmp ne i32 %0, 4
  br i1 %cmp, label %land.lhs.true, label %if.end

land.lhs.true:                                    ; preds = %entry
  %m_activationState12 = getelementptr inbounds %class.btCollisionObject, ptr %this1, i32 0, i32 16
  %1 = load i32, ptr %m_activationState12, align 8
  %cmp3 = icmp ne i32 %1, 5
  br i1 %cmp3, label %if.then, label %if.end

if.then:                                          ; preds = %land.lhs.true
  %2 = load i32, ptr %newState.addr, align 4
  %m_activationState14 = getelementptr inbounds %class.btCollisionObject, ptr %this1, i32 0, i32 16
  store i32 %2, ptr %m_activationState14, align 8
  br label %if.end

if.end:                                           ; preds = %if.then, %land.lhs.true, %entry
  ret void
}

; Function Attrs: mustprogress nounwind uwtable
define dso_local void @_ZNK17btCollisionObject8activateEb(ptr noundef nonnull align 8 dereferenceable(372) %this, i1 noundef zeroext %forceActivation) #1 align 2 {
entry:
  %this.addr = alloca ptr, align 8
  %forceActivation.addr = alloca i8, align 1
  store ptr %this, ptr %this.addr, align 8
  %frombool = zext i1 %forceActivation to i8
  store i8 %frombool, ptr %forceActivation.addr, align 1
  %this1 = load ptr, ptr %this.addr, align 8
  %0 = load i8, ptr %forceActivation.addr, align 1
  %tobool = trunc i8 %0 to i1
  br i1 %tobool, label %if.then, label %lor.lhs.false

lor.lhs.false:                                    ; preds = %entry
  %m_collisionFlags = getelementptr inbounds %class.btCollisionObject, ptr %this1, i32 0, i32 12
  %1 = load i32, ptr %m_collisionFlags, align 8
  %and = and i32 %1, 3
  %tobool2 = icmp ne i32 %and, 0
  br i1 %tobool2, label %if.end, label %if.then

if.then:                                          ; preds = %lor.lhs.false, %entry
  call void @_ZNK17btCollisionObject18setActivationStateEi(ptr noundef nonnull align 8 dereferenceable(372) %this1, i32 noundef 1)
  %m_deactivationTime = getelementptr inbounds %class.btCollisionObject, ptr %this1, i32 0, i32 17
  store float 0.000000e+00, ptr %m_deactivationTime, align 4
  br label %if.end

if.end:                                           ; preds = %if.then, %lor.lhs.false
  ret void
}