; Function Attrs: mustprogress nofree norecurse nosync nounwind willreturn memory(argmem: readwrite) uwtable
define dso_local void @_ZNK17btCollisionObject8activateEb(ptr nocapture noundef nonnull align 8 dereferenceable(372) %this, i1 noundef zeroext %forceActivation) local_unnamed_addr #2 align 2 {
entry:
  br i1 %forceActivation, label %if.then, label %lor.lhs.false

lor.lhs.false:                                    ; preds = %entry
  %m_collisionFlags = getelementptr inbounds i8, ptr %this, i64 224
  %0 = load i32, ptr %m_collisionFlags, align 8
  %and = and i32 %0, 3
  %tobool2.not = icmp eq i32 %and, 0
  br i1 %tobool2.not, label %if.then, label %if.end

if.then:                                          ; preds = %lor.lhs.false, %entry
  %m_activationState1.i = getelementptr inbounds i8, ptr %this, i64 240
  %1 = load i32, ptr %m_activationState1.i, align 8
  %2 = and i32 %1, -2
  %switch.i = icmp eq i32 %2, 4
  br i1 %switch.i, label %_ZNK17btCollisionObject18setActivationStateEi.exit, label %if.then.i

if.then.i:                                        ; preds = %if.then
  store i32 1, ptr %m_activationState1.i, align 8
  br label %_ZNK17btCollisionObject18setActivationStateEi.exit

_ZNK17btCollisionObject18setActivationStateEi.exit: ; preds = %if.then, %if.then.i
  %m_deactivationTime = getelementptr inbounds i8, ptr %this, i64 244
  store float 0.000000e+00, ptr %m_deactivationTime, align 4
  br label %if.end

if.end:                                           ; preds = %_ZNK17btCollisionObject18setActivationStateEi.exit, %lor.lhs.false
  ret void
}